
naughty:     file format elf32-i386


Disassembly of section .init:

08048308 <_init>:
 8048308:	53                   	push   ebx
 8048309:	83 ec 08             	sub    esp,0x8
 804830c:	e8 df 00 00 00       	call   80483f0 <__x86.get_pc_thunk.bx>
 8048311:	81 c3 ef 1c 00 00    	add    ebx,0x1cef
 8048317:	8b 83 fc ff ff ff    	mov    eax,DWORD PTR [ebx-0x4]
 804831d:	85 c0                	test   eax,eax
 804831f:	74 05                	je     8048326 <_init+0x1e>
 8048321:	e8 6a 00 00 00       	call   8048390 <__gmon_start__@plt>
 8048326:	83 c4 08             	add    esp,0x8
 8048329:	5b                   	pop    ebx
 804832a:	c3                   	ret    

Disassembly of section .plt:

08048330 <.plt>:
 8048330:	ff 35 04 a0 04 08    	push   DWORD PTR ds:0x804a004
 8048336:	ff 25 08 a0 04 08    	jmp    DWORD PTR ds:0x804a008
 804833c:	00 00                	add    BYTE PTR [eax],al
	...

08048340 <read@plt>:
 8048340:	ff 25 0c a0 04 08    	jmp    DWORD PTR ds:0x804a00c
 8048346:	68 00 00 00 00       	push   0x0
 804834b:	e9 e0 ff ff ff       	jmp    8048330 <.plt>

08048350 <puts@plt>:
 8048350:	ff 25 10 a0 04 08    	jmp    DWORD PTR ds:0x804a010
 8048356:	68 08 00 00 00       	push   0x8
 804835b:	e9 d0 ff ff ff       	jmp    8048330 <.plt>

08048360 <exit@plt>:
 8048360:	ff 25 14 a0 04 08    	jmp    DWORD PTR ds:0x804a014
 8048366:	68 10 00 00 00       	push   0x10
 804836b:	e9 c0 ff ff ff       	jmp    8048330 <.plt>

08048370 <__libc_start_main@plt>:
 8048370:	ff 25 18 a0 04 08    	jmp    DWORD PTR ds:0x804a018
 8048376:	68 18 00 00 00       	push   0x18
 804837b:	e9 b0 ff ff ff       	jmp    8048330 <.plt>

08048380 <ptrace@plt>:
 8048380:	ff 25 1c a0 04 08    	jmp    DWORD PTR ds:0x804a01c
 8048386:	68 20 00 00 00       	push   0x20
 804838b:	e9 a0 ff ff ff       	jmp    8048330 <.plt>

Disassembly of section .plt.got:

08048390 <__gmon_start__@plt>:
 8048390:	ff 25 fc 9f 04 08    	jmp    DWORD PTR ds:0x8049ffc
 8048396:	66 90                	xchg   ax,ax

Disassembly of section .text:

080483a0 <_start>:
 80483a0:	31 ed                	xor    ebp,ebp
 80483a2:	5e                   	pop    esi
 80483a3:	89 e1                	mov    ecx,esp
 80483a5:	83 e4 f0             	and    esp,0xfffffff0
 80483a8:	50                   	push   eax
 80483a9:	54                   	push   esp
 80483aa:	52                   	push   edx
 80483ab:	e8 23 00 00 00       	call   80483d3 <_start+0x33>
 80483b0:	81 c3 50 1c 00 00    	add    ebx,0x1c50
 80483b6:	8d 83 50 e8 ff ff    	lea    eax,[ebx-0x17b0]
 80483bc:	50                   	push   eax
 80483bd:	8d 83 f0 e7 ff ff    	lea    eax,[ebx-0x1810]
 80483c3:	50                   	push   eax
 80483c4:	51                   	push   ecx
 80483c5:	56                   	push   esi
 80483c6:	c7 c0 3f 87 04 08    	mov    eax,0x804873f
 80483cc:	50                   	push   eax
 80483cd:	e8 9e ff ff ff       	call   8048370 <__libc_start_main@plt>
 80483d2:	f4                   	hlt    
 80483d3:	8b 1c 24             	mov    ebx,DWORD PTR [esp]
 80483d6:	c3                   	ret    
 80483d7:	66 90                	xchg   ax,ax
 80483d9:	66 90                	xchg   ax,ax
 80483db:	66 90                	xchg   ax,ax
 80483dd:	66 90                	xchg   ax,ax
 80483df:	90                   	nop

080483e0 <_dl_relocate_static_pie>:
 80483e0:	f3 c3                	repz ret 
 80483e2:	66 90                	xchg   ax,ax
 80483e4:	66 90                	xchg   ax,ax
 80483e6:	66 90                	xchg   ax,ax
 80483e8:	66 90                	xchg   ax,ax
 80483ea:	66 90                	xchg   ax,ax
 80483ec:	66 90                	xchg   ax,ax
 80483ee:	66 90                	xchg   ax,ax

080483f0 <__x86.get_pc_thunk.bx>:
 80483f0:	8b 1c 24             	mov    ebx,DWORD PTR [esp]
 80483f3:	c3                   	ret    
 80483f4:	66 90                	xchg   ax,ax
 80483f6:	66 90                	xchg   ax,ax
 80483f8:	66 90                	xchg   ax,ax
 80483fa:	66 90                	xchg   ax,ax
 80483fc:	66 90                	xchg   ax,ax
 80483fe:	66 90                	xchg   ax,ax
 8048400:	b8 70 a0 04 08       	mov    eax,0x804a070
 8048405:	3d 70 a0 04 08       	cmp    eax,0x804a070
 804840a:	74 24                	je     8048430 <__x86.get_pc_thunk.bx+0x40>
 804840c:	b8 00 00 00 00       	mov    eax,0x0
 8048411:	85 c0                	test   eax,eax
 8048413:	74 1b                	je     8048430 <__x86.get_pc_thunk.bx+0x40>
 8048415:	55                   	push   ebp
 8048416:	89 e5                	mov    ebp,esp
 8048418:	83 ec 14             	sub    esp,0x14
 804841b:	68 70 a0 04 08       	push   0x804a070
 8048420:	ff d0                	call   eax
 8048422:	83 c4 10             	add    esp,0x10
 8048425:	c9                   	leave  
 8048426:	c3                   	ret    
 8048427:	89 f6                	mov    esi,esi
 8048429:	8d bc 27 00 00 00 00 	lea    edi,[edi+eiz*1+0x0]
 8048430:	f3 c3                	repz ret 
 8048432:	8d b4 26 00 00 00 00 	lea    esi,[esi+eiz*1+0x0]
 8048439:	8d bc 27 00 00 00 00 	lea    edi,[edi+eiz*1+0x0]
 8048440:	b8 70 a0 04 08       	mov    eax,0x804a070
 8048445:	2d 70 a0 04 08       	sub    eax,0x804a070
 804844a:	c1 f8 02             	sar    eax,0x2
 804844d:	89 c2                	mov    edx,eax
 804844f:	c1 ea 1f             	shr    edx,0x1f
 8048452:	01 d0                	add    eax,edx
 8048454:	d1 f8                	sar    eax,1
 8048456:	74 20                	je     8048478 <__x86.get_pc_thunk.bx+0x88>
 8048458:	ba 00 00 00 00       	mov    edx,0x0
 804845d:	85 d2                	test   edx,edx
 804845f:	74 17                	je     8048478 <__x86.get_pc_thunk.bx+0x88>
 8048461:	55                   	push   ebp
 8048462:	89 e5                	mov    ebp,esp
 8048464:	83 ec 10             	sub    esp,0x10
 8048467:	50                   	push   eax
 8048468:	68 70 a0 04 08       	push   0x804a070
 804846d:	ff d2                	call   edx
 804846f:	83 c4 10             	add    esp,0x10
 8048472:	c9                   	leave  
 8048473:	c3                   	ret    
 8048474:	8d 74 26 00          	lea    esi,[esi+eiz*1+0x0]
 8048478:	f3 c3                	repz ret 
 804847a:	8d b6 00 00 00 00    	lea    esi,[esi+0x0]
 8048480:	80 3d 6e a0 04 08 00 	cmp    BYTE PTR ds:0x804a06e,0x0
 8048487:	75 17                	jne    80484a0 <__x86.get_pc_thunk.bx+0xb0>
 8048489:	55                   	push   ebp
 804848a:	89 e5                	mov    ebp,esp
 804848c:	83 ec 08             	sub    esp,0x8
 804848f:	e8 6c ff ff ff       	call   8048400 <__x86.get_pc_thunk.bx+0x10>
 8048494:	c6 05 6e a0 04 08 01 	mov    BYTE PTR ds:0x804a06e,0x1
 804849b:	c9                   	leave  
 804849c:	c3                   	ret    
 804849d:	8d 76 00             	lea    esi,[esi+0x0]
 80484a0:	f3 c3                	repz ret 
 80484a2:	8d b4 26 00 00 00 00 	lea    esi,[esi+eiz*1+0x0]
 80484a9:	8d bc 27 00 00 00 00 	lea    edi,[edi+eiz*1+0x0]
 80484b0:	55                   	push   ebp
 80484b1:	89 e5                	mov    ebp,esp
 80484b3:	5d                   	pop    ebp
 80484b4:	eb 8a                	jmp    8048440 <__x86.get_pc_thunk.bx+0x50>
 80484b6:	66 90                	xchg   ax,ax
 80484b8:	66 90                	xchg   ax,ax
 80484ba:	66 90                	xchg   ax,ax
 80484bc:	66 90                	xchg   ax,ax
 80484be:	66 90                	xchg   ax,ax
 80484c0:	53                   	push   ebx
 80484c1:	8b 54 24 08          	mov    edx,DWORD PTR [esp+0x8]
 80484c5:	8b 44 24 0c          	mov    eax,DWORD PTR [esp+0xc]
 80484c9:	0f b6 0a             	movzx  ecx,BYTE PTR [edx]
 80484cc:	0f b6 18             	movzx  ebx,BYTE PTR [eax]
 80484cf:	88 1a                	mov    BYTE PTR [edx],bl
 80484d1:	88 08                	mov    BYTE PTR [eax],cl
 80484d3:	5b                   	pop    ebx
 80484d4:	c3                   	ret    
 80484d5:	55                   	push   ebp
 80484d6:	31 c0                	xor    eax,eax
 80484d8:	57                   	push   edi
 80484d9:	56                   	push   esi
 80484da:	53                   	push   ebx
 80484db:	8b 74 24 14          	mov    esi,DWORD PTR [esp+0x14]
 80484df:	8b 6c 24 18          	mov    ebp,DWORD PTR [esp+0x18]
 80484e3:	66 90                	xchg   ax,ax
 80484e5:	88 04 06             	mov    BYTE PTR [esi+eax*1],al
 80484e8:	83 c0 01             	add    eax,0x1
 80484eb:	3d 00 01 00 00       	cmp    eax,0x100
 80484f0:	75 f3                	jne    80484e5 <__x86.get_pc_thunk.bx+0xf5>
 80484f2:	31 c9                	xor    ecx,ecx
 80484f4:	31 db                	xor    ebx,ebx
 80484f6:	89 d8                	mov    eax,ebx
 80484f8:	0f b6 3c 1e          	movzx  edi,BYTE PTR [esi+ebx*1]
 80484fc:	99                   	cdq    
 80484fd:	f7 7c 24 1c          	idiv   DWORD PTR [esp+0x1c]
 8048501:	89 f8                	mov    eax,edi
 8048503:	02 44 15 00          	add    al,BYTE PTR [ebp+edx*1+0x0]
 8048507:	01 c1                	add    ecx,eax
 8048509:	0f b6 c9             	movzx  ecx,cl
 804850c:	0f b6 04 0e          	movzx  eax,BYTE PTR [esi+ecx*1]
 8048510:	88 04 1e             	mov    BYTE PTR [esi+ebx*1],al
 8048513:	89 f8                	mov    eax,edi
 8048515:	83 c3 01             	add    ebx,0x1
 8048518:	88 04 0e             	mov    BYTE PTR [esi+ecx*1],al
 804851b:	81 fb 00 01 00 00    	cmp    ebx,0x100
 8048521:	75 d3                	jne    80484f6 <__x86.get_pc_thunk.bx+0x106>
 8048523:	5b                   	pop    ebx
 8048524:	5e                   	pop    esi
 8048525:	5f                   	pop    edi
 8048526:	5d                   	pop    ebp
 8048527:	c3                   	ret    
 8048528:	55                   	push   ebp
 8048529:	57                   	push   edi
 804852a:	56                   	push   esi
 804852b:	53                   	push   ebx
 804852c:	8b 7c 24 1c          	mov    edi,DWORD PTR [esp+0x1c]
 8048530:	8b 4c 24 14          	mov    ecx,DWORD PTR [esp+0x14]
 8048534:	85 ff                	test   edi,edi
 8048536:	7e 38                	jle    8048570 <__x86.get_pc_thunk.bx+0x180>
 8048538:	8b 74 24 18          	mov    esi,DWORD PTR [esp+0x18]
 804853c:	31 db                	xor    ebx,ebx
 804853e:	31 d2                	xor    edx,edx
 8048540:	01 f7                	add    edi,esi
 8048542:	83 c2 01             	add    edx,0x1
 8048545:	0f b6 d2             	movzx  edx,dl
 8048548:	0f b6 2c 11          	movzx  ebp,BYTE PTR [ecx+edx*1]
 804854c:	01 eb                	add    ebx,ebp
 804854e:	0f b6 db             	movzx  ebx,bl
 8048551:	0f b6 04 19          	movzx  eax,BYTE PTR [ecx+ebx*1]
 8048555:	88 04 11             	mov    BYTE PTR [ecx+edx*1],al
 8048558:	89 e8                	mov    eax,ebp
 804855a:	88 04 19             	mov    BYTE PTR [ecx+ebx*1],al
 804855d:	02 04 11             	add    al,BYTE PTR [ecx+edx*1]
 8048560:	0f b6 c0             	movzx  eax,al
 8048563:	0f b6 04 01          	movzx  eax,BYTE PTR [ecx+eax*1]
 8048567:	30 06                	xor    BYTE PTR [esi],al
 8048569:	83 c6 01             	add    esi,0x1
 804856c:	39 f7                	cmp    edi,esi
 804856e:	75 d2                	jne    8048542 <__x86.get_pc_thunk.bx+0x152>
 8048570:	5b                   	pop    ebx
 8048571:	5e                   	pop    esi
 8048572:	5f                   	pop    edi
 8048573:	5d                   	pop    ebp
 8048574:	c3                   	ret    
 8048575:	55                   	push   ebp
 8048576:	89 e5                	mov    ebp,esp
 8048578:	81 ec 08 01 00 00    	sub    esp,0x108
 804857e:	83 ec 04             	sub    esp,0x4
 8048581:	ff 75 0c             	push   DWORD PTR [ebp+0xc]
 8048584:	ff 75 08             	push   DWORD PTR [ebp+0x8]
 8048587:	8d 85 f8 fe ff ff    	lea    eax,[ebp-0x108]
 804858d:	50                   	push   eax
 804858e:	e8 42 ff ff ff       	call   80484d5 <__x86.get_pc_thunk.bx+0xe5>
 8048593:	83 c4 10             	add    esp,0x10
 8048596:	83 ec 04             	sub    esp,0x4
 8048599:	6a 2e                	push   0x2e
 804859b:	68 28 a0 04 08       	push   0x804a028
 80485a0:	8d 85 f8 fe ff ff    	lea    eax,[ebp-0x108]
 80485a6:	50                   	push   eax
 80485a7:	e8 7c ff ff ff       	call   8048528 <__x86.get_pc_thunk.bx+0x138>
 80485ac:	83 c4 10             	add    esp,0x10
 80485af:	c9                   	leave  
 80485b0:	c3                   	ret    

080485b1 <print_flag>:
 80485b1:	55                   	push   ebp
 80485b2:	89 e5                	mov    ebp,esp
 80485b4:	6a 04                	push   0x4
 80485b6:	68 69 a0 04 08       	push   0x804a069
 80485bb:	6a 00                	push   0x0
 80485bd:	6a 00                	push   0x0
 80485bf:	6a 00                	push   0x0
 80485c1:	6a 00                	push   0x0
 80485c3:	e8 b8 fd ff ff       	call   8048380 <ptrace@plt>
 80485c8:	83 c4 10             	add    esp,0x10
 80485cb:	83 f8 ff             	cmp    eax,0xffffffff
 80485ce:	75 07                	jne    80485d7 <print_flag+0x26>
 80485d0:	6a 01                	push   0x1
 80485d2:	e8 89 fd ff ff       	call   8048360 <exit@plt>
 80485d7:	e8 99 ff ff ff       	call   8048575 <__x86.get_pc_thunk.bx+0x185>
 80485dc:	68 28 a0 04 08       	push   0x804a028
 80485e1:	e8 6a fd ff ff       	call   8048350 <puts@plt>
 80485e6:	c9                   	leave  
 80485e7:	c3                   	ret    
 80485e8:	55                   	push   ebp
 80485e9:	89 e5                	mov    ebp,esp
 80485eb:	68 57 a0 04 08       	push   0x804a057
 80485f0:	e8 5b fd ff ff       	call   8048350 <puts@plt>
 80485f5:	6a 00                	push   0x0
 80485f7:	e8 64 fd ff ff       	call   8048360 <exit@plt>
 80485fc:	c9                   	leave  
 80485fd:	c3                   	ret    
 80485fe:	55                   	push   ebp
 80485ff:	89 e5                	mov    ebp,esp
 8048601:	81 ec da 01 00 00    	sub    esp,0x1da
 8048607:	89 e2                	mov    edx,esp
 8048609:	68 19 01 00 00       	push   0x119
 804860e:	52                   	push   edx
 804860f:	6a 00                	push   0x0
 8048611:	e8 2a fd ff ff       	call   8048340 <read@plt>
 8048616:	81 bd 0b ff ff ff 93 	cmp    DWORD PTR [ebp-0xf5],0x5b0aeb93
 804861d:	eb 0a 5b 
 8048620:	74 07                	je     8048629 <print_flag+0x78>
 8048622:	6a 01                	push   0x1
 8048624:	e8 37 fd ff ff       	call   8048360 <exit@plt>
 8048629:	c9                   	leave  
 804862a:	c3                   	ret    
 804862b:	55                   	push   ebp
 804862c:	89 e5                	mov    ebp,esp
 804862e:	81 ec 0b 01 00 00    	sub    esp,0x10b
 8048634:	89 e2                	mov    edx,esp
 8048636:	68 cf 00 00 00       	push   0xcf
 804863b:	52                   	push   edx
 804863c:	6a 00                	push   0x0
 804863e:	e8 fd fc ff ff       	call   8048340 <read@plt>
 8048643:	81 7d b2 2c 5c 4a 43 	cmp    DWORD PTR [ebp-0x4e],0x434a5c2c
 804864a:	74 07                	je     8048653 <print_flag+0xa2>
 804864c:	6a 01                	push   0x1
 804864e:	e8 0d fd ff ff       	call   8048360 <exit@plt>
 8048653:	c9                   	leave  
 8048654:	c3                   	ret    
 8048655:	55                   	push   ebp
 8048656:	89 e5                	mov    ebp,esp
 8048658:	81 ec e4 01 00 00    	sub    esp,0x1e4
 804865e:	89 e2                	mov    edx,esp
 8048660:	68 d1 00 00 00       	push   0xd1
 8048665:	52                   	push   edx
 8048666:	6a 00                	push   0x0
 8048668:	e8 d3 fc ff ff       	call   8048340 <read@plt>
 804866d:	81 bd bc fe ff ff 64 	cmp    DWORD PTR [ebp-0x144],0x8108164
 8048674:	81 10 08 
 8048677:	74 07                	je     8048680 <print_flag+0xcf>
 8048679:	6a 01                	push   0x1
 804867b:	e8 e0 fc ff ff       	call   8048360 <exit@plt>
 8048680:	c9                   	leave  
 8048681:	c3                   	ret    
 8048682:	55                   	push   ebp
 8048683:	89 e5                	mov    ebp,esp
 8048685:	81 ec ce 01 00 00    	sub    esp,0x1ce
 804868b:	89 e2                	mov    edx,esp
 804868d:	68 47 03 00 00       	push   0x347
 8048692:	52                   	push   edx
 8048693:	6a 00                	push   0x0
 8048695:	e8 a6 fc ff ff       	call   8048340 <read@plt>
 804869a:	81 bd 49 fe ff ff 01 	cmp    DWORD PTR [ebp-0x1b7],0xabdc4f01
 80486a1:	4f dc ab 
 80486a4:	74 07                	je     80486ad <print_flag+0xfc>
 80486a6:	6a 01                	push   0x1
 80486a8:	e8 b3 fc ff ff       	call   8048360 <exit@plt>
 80486ad:	8b 45 0c             	mov    eax,DWORD PTR [ebp+0xc]
 80486b0:	ff d0                	call   eax
 80486b2:	6a 00                	push   0x0
 80486b4:	e8 a7 fc ff ff       	call   8048360 <exit@plt>
 80486b9:	c9                   	leave  
 80486ba:	c3                   	ret    
 80486bb:	55                   	push   ebp
 80486bc:	89 e5                	mov    ebp,esp
 80486be:	81 ec 47 01 00 00    	sub    esp,0x147
 80486c4:	89 e2                	mov    edx,esp
 80486c6:	6a 7c                	push   0x7c
 80486c8:	52                   	push   edx
 80486c9:	6a 00                	push   0x0
 80486cb:	e8 70 fc ff ff       	call   8048340 <read@plt>
 80486d0:	81 bd c7 fe ff ff d6 	cmp    DWORD PTR [ebp-0x139],0x36b5fdd6
 80486d7:	fd b5 36 
 80486da:	74 07                	je     80486e3 <print_flag+0x132>
 80486dc:	6a 01                	push   0x1
 80486de:	e8 7d fc ff ff       	call   8048360 <exit@plt>
 80486e3:	c9                   	leave  
 80486e4:	c3                   	ret    
 80486e5:	55                   	push   ebp
 80486e6:	89 e5                	mov    ebp,esp
 80486e8:	81 ec ab 01 00 00    	sub    esp,0x1ab
 80486ee:	89 e2                	mov    edx,esp
 80486f0:	68 95 00 00 00       	push   0x95
 80486f5:	52                   	push   edx
 80486f6:	6a 00                	push   0x0
 80486f8:	e8 43 fc ff ff       	call   8048340 <read@plt>
 80486fd:	81 bd 6a fe ff ff cf 	cmp    DWORD PTR [ebp-0x196],0xbe70edcf
 8048704:	ed 70 be 
 8048707:	74 07                	je     8048710 <print_flag+0x15f>
 8048709:	6a 01                	push   0x1
 804870b:	e8 50 fc ff ff       	call   8048360 <exit@plt>
 8048710:	c9                   	leave  
 8048711:	c3                   	ret    
 8048712:	55                   	push   ebp
 8048713:	89 e5                	mov    ebp,esp
 8048715:	81 ec a6 01 00 00    	sub    esp,0x1a6
 804871b:	89 e2                	mov    edx,esp
 804871d:	68 48 01 00 00       	push   0x148
 8048722:	52                   	push   edx
 8048723:	6a 00                	push   0x0
 8048725:	e8 16 fc ff ff       	call   8048340 <read@plt>
 804872a:	81 bd f8 fe ff ff 82 	cmp    DWORD PTR [ebp-0x108],0xd5f32682
 8048731:	26 f3 d5 
 8048734:	74 07                	je     804873d <print_flag+0x18c>
 8048736:	6a 01                	push   0x1
 8048738:	e8 23 fc ff ff       	call   8048360 <exit@plt>
 804873d:	c9                   	leave  
 804873e:	c3                   	ret    

0804873f <main>:
 804873f:	55                   	push   ebp
 8048740:	89 e5                	mov    ebp,esp
 8048742:	68 07 53 04 08       	push   0x8045307
 8048747:	68 b8 31 04 08       	push   0x80431b8
 804874c:	68 fa e4 04 08       	push   0x804e4fa
 8048751:	68 46 6a 04 08       	push   0x8046a46
 8048756:	68 87 5a 04 08       	push   0x8045a87
 804875b:	e8 9e fe ff ff       	call   80485fe <print_flag+0x4d>
 8048760:	68 89 73 04 08       	push   0x8047389
 8048765:	68 ea 5c 04 08       	push   0x8045cea
 804876a:	68 70 51 04 08       	push   0x8045170
 804876f:	e8 b7 fe ff ff       	call   804862b <print_flag+0x7a>
 8048774:	68 74 bc 04 08       	push   0x804bc74
 8048779:	68 d5 06 04 08       	push   0x80406d5
 804877e:	68 47 56 04 08       	push   0x8045647
 8048783:	68 9b 5e 04 08       	push   0x8045e9b
 8048788:	e8 c8 fe ff ff       	call   8048655 <print_flag+0xa4>
 804878d:	68 9b 3f 04 08       	push   0x8043f9b
 8048792:	68 e8 85 04 08       	push   0x80485e8
 8048797:	68 29 0a 04 08       	push   0x8040a29
 804879c:	e8 e1 fe ff ff       	call   8048682 <print_flag+0xd1>
 80487a1:	68 23 82 04 08       	push   0x8048223
 80487a6:	68 db 04 04 08       	push   0x80404db
 80487ab:	68 ff 01 04 08       	push   0x80401ff
 80487b0:	e8 06 ff ff ff       	call   80486bb <print_flag+0x10a>
 80487b5:	68 b1 a1 04 08       	push   0x804a1b1
 80487ba:	68 0c d0 04 08       	push   0x804d00c
 80487bf:	68 d9 20 04 08       	push   0x80420d9
 80487c4:	68 d7 61 04 08       	push   0x80461d7
 80487c9:	68 4b 2a 04 08       	push   0x8042a4b
 80487ce:	e8 12 ff ff ff       	call   80486e5 <print_flag+0x134>
 80487d3:	68 fc 17 04 08       	push   0x80417fc
 80487d8:	68 22 70 04 08       	push   0x8047022
 80487dd:	68 40 ad 04 08       	push   0x804ad40
 80487e2:	68 37 ad 04 08       	push   0x804ad37
 80487e7:	e8 26 ff ff ff       	call   8048712 <print_flag+0x161>
 80487ec:	c9                   	leave  
 80487ed:	c3                   	ret    
 80487ee:	66 90                	xchg   ax,ax

080487f0 <__libc_csu_init>:
 80487f0:	55                   	push   ebp
 80487f1:	57                   	push   edi
 80487f2:	56                   	push   esi
 80487f3:	53                   	push   ebx
 80487f4:	e8 f7 fb ff ff       	call   80483f0 <__x86.get_pc_thunk.bx>
 80487f9:	81 c3 07 18 00 00    	add    ebx,0x1807
 80487ff:	83 ec 0c             	sub    esp,0xc
 8048802:	8b 6c 24 28          	mov    ebp,DWORD PTR [esp+0x28]
 8048806:	8d b3 10 ff ff ff    	lea    esi,[ebx-0xf0]
 804880c:	e8 f7 fa ff ff       	call   8048308 <_init>
 8048811:	8d 83 0c ff ff ff    	lea    eax,[ebx-0xf4]
 8048817:	29 c6                	sub    esi,eax
 8048819:	c1 fe 02             	sar    esi,0x2
 804881c:	85 f6                	test   esi,esi
 804881e:	74 25                	je     8048845 <__libc_csu_init+0x55>
 8048820:	31 ff                	xor    edi,edi
 8048822:	8d b6 00 00 00 00    	lea    esi,[esi+0x0]
 8048828:	83 ec 04             	sub    esp,0x4
 804882b:	55                   	push   ebp
 804882c:	ff 74 24 2c          	push   DWORD PTR [esp+0x2c]
 8048830:	ff 74 24 2c          	push   DWORD PTR [esp+0x2c]
 8048834:	ff 94 bb 0c ff ff ff 	call   DWORD PTR [ebx+edi*4-0xf4]
 804883b:	83 c7 01             	add    edi,0x1
 804883e:	83 c4 10             	add    esp,0x10
 8048841:	39 fe                	cmp    esi,edi
 8048843:	75 e3                	jne    8048828 <__libc_csu_init+0x38>
 8048845:	83 c4 0c             	add    esp,0xc
 8048848:	5b                   	pop    ebx
 8048849:	5e                   	pop    esi
 804884a:	5f                   	pop    edi
 804884b:	5d                   	pop    ebp
 804884c:	c3                   	ret    
 804884d:	8d 76 00             	lea    esi,[esi+0x0]

08048850 <__libc_csu_fini>:
 8048850:	f3 c3                	repz ret 

Disassembly of section .fini:

08048854 <_fini>:
 8048854:	53                   	push   ebx
 8048855:	83 ec 08             	sub    esp,0x8
 8048858:	e8 93 fb ff ff       	call   80483f0 <__x86.get_pc_thunk.bx>
 804885d:	81 c3 a3 17 00 00    	add    ebx,0x17a3
 8048863:	83 c4 08             	add    esp,0x8
 8048866:	5b                   	pop    ebx
 8048867:	c3                   	ret    
